; Function Attrs: mustprogress nofree nounwind willreturn memory(argmem: read) uwtable
define internal fastcc noundef zeroext i1 @_ZL20isObjCProtectedMacroPKN5clang14IdentifierInfoE(ptr nocapture readonly %.16.val) unnamed_addr #5 {
  %1 = load i64, ptr %.16.val, align 8
  %trunc = trunc i64 %1 to i32
  switch i32 %trunc, label %_ZNK5clang14IdentifierInfo5isStrILm16EEEbRAT__Kc.exit [
    i32 8, label %_ZNK5clang14IdentifierInfo5isStrILm9EEEbRAT__Kc.exit
    i32 6, label %_ZNK5clang14IdentifierInfo5isStrILm7EEEbRAT__Kc.exit
    i32 19, label %_ZNK5clang14IdentifierInfo5isStrILm20EEEbRAT__Kc.exit
    i32 15, label %8
  ]

_ZNK5clang14IdentifierInfo5isStrILm9EEEbRAT__Kc.exit: ; preds = %0
  %2 = getelementptr inbounds i8, ptr %.16.val, i64 16
  %bcmp.i = tail call i32 @bcmp(ptr noundef nonnull dereferenceable(8) %2, ptr noundef nonnull dereferenceable(8) @.str.245, i64 8)
  %3 = icmp eq i32 %bcmp.i, 0
  br i1 %3, label %_ZNK5clang14IdentifierInfo5isStrILm16EEEbRAT__Kc.exit, label %.thread4

_ZNK5clang14IdentifierInfo5isStrILm7EEEbRAT__Kc.exit: ; preds = %0
  %4 = getelementptr inbounds i8, ptr %.16.val, i64 16
  %bcmp.i4 = tail call i32 @bcmp(ptr noundef nonnull dereferenceable(6) %4, ptr noundef nonnull dereferenceable(6) @.str.246, i64 6)
  %5 = icmp eq i32 %bcmp.i4, 0
  br i1 %5, label %_ZNK5clang14IdentifierInfo5isStrILm16EEEbRAT__Kc.exit, label %.thread4

_ZNK5clang14IdentifierInfo5isStrILm20EEEbRAT__Kc.exit: ; preds = %0
  %6 = getelementptr inbounds i8, ptr %.16.val, i64 16
  %bcmp.i5 = tail call i32 @bcmp(ptr noundef nonnull dereferenceable(19) %6, ptr noundef nonnull dereferenceable(19) @.str.247, i64 19)
  %7 = icmp eq i32 %bcmp.i5, 0
  br label %_ZNK5clang14IdentifierInfo5isStrILm16EEEbRAT__Kc.exit

.thread4:                                         ; preds = %_ZNK5clang14IdentifierInfo5isStrILm9EEEbRAT__Kc.exit, %_ZNK5clang14IdentifierInfo5isStrILm7EEEbRAT__Kc.exit
  br label %_ZNK5clang14IdentifierInfo5isStrILm16EEEbRAT__Kc.exit

8:                                                ; preds = %0
  %9 = getelementptr inbounds i8, ptr %.16.val, i64 16
  %bcmp.i6 = tail call i32 @bcmp(ptr noundef nonnull dereferenceable(15) %9, ptr noundef nonnull dereferenceable(15) @.str.248, i64 15)
  %10 = icmp eq i32 %bcmp.i6, 0
  br label %_ZNK5clang14IdentifierInfo5isStrILm16EEEbRAT__Kc.exit

_ZNK5clang14IdentifierInfo5isStrILm16EEEbRAT__Kc.exit: ; preds = %_ZNK5clang14IdentifierInfo5isStrILm20EEEbRAT__Kc.exit, %0, %8, %.thread4, %_ZNK5clang14IdentifierInfo5isStrILm7EEEbRAT__Kc.exit, %_ZNK5clang14IdentifierInfo5isStrILm9EEEbRAT__Kc.exit
  %11 = phi i1 [ true, %_ZNK5clang14IdentifierInfo5isStrILm7EEEbRAT__Kc.exit ], [ true, %_ZNK5clang14IdentifierInfo5isStrILm9EEEbRAT__Kc.exit ], [ %10, %8 ], [ false, %.thread4 ], [ %7, %_ZNK5clang14IdentifierInfo5isStrILm20EEEbRAT__Kc.exit ], [ false, %0 ]
  ret i1 %11
}